; Function Attrs: mustprogress uwtable
define hidden noundef nonnull align 8 dereferenceable(8) ptr @_ZN2dd6solver9get_queueERKNS0_8equationE(ptr noundef nonnull readnone align 8 dereferenceable(208) %this, ptr nocapture noundef nonnull readonly align 8 dereferenceable(32) %eq) local_unnamed_addr #5 align 2 {
entry:
  %0 = load i32, ptr %eq, align 8
  %1 = icmp ult i32 %0, 3
  br i1 %1, label %switch.lookup, label %sw.epilog

sw.epilog:                                        ; preds = %entry
  tail call void @_Z26notify_assertion_violationPKciS0_(ptr noundef nonnull @.str.7, i32 noundef 433, ptr noundef nonnull @.str.10)
  tail call void @exit(i32 noundef 114) #24
  unreachable

switch.lookup:                                    ; preds = %entry
  %2 = shl nuw nsw i32 %0, 3
  %3 = zext nneg i32 %2 to i64
  %4 = getelementptr i8, ptr %this, i64 %3
  %m_solved = getelementptr i8, ptr %4, i64 136
  ret ptr %m_solved
}